; Function Attrs: mustprogress uwtable
define hidden void @_ZN3sat8elim_eqsclERK7svectorINS_7literalEjERKS1_IjjE(ptr noundef nonnull align 8 dereferenceable(24) %this, ptr nocapture noundef nonnull readonly align 8 dereferenceable(8) %roots, ptr nocapture noundef nonnull readonly align 8 dereferenceable(8) %to_elim) local_unnamed_addr #6 align 2 {
entry:
  tail call void @_ZN3sat8elim_eqs19cleanup_bin_watchesERK7svectorINS_7literalEjE(ptr noundef nonnull align 8 dereferenceable(24) %this, ptr noundef nonnull align 8 dereferenceable(8) %roots)
  %m_solver = getelementptr inbounds i8, ptr %this, i64 8
  %0 = load ptr, ptr %m_solver, align 8
  %m_clauses = getelementptr inbounds i8, ptr %0, i64 3376
  tail call void @_ZN3sat8elim_eqs15cleanup_clausesERK7svectorINS_7literalEjER10ptr_vectorINS_6clauseEE(ptr noundef nonnull align 8 dereferenceable(24) %this, ptr noundef nonnull align 8 dereferenceable(8) %roots, ptr noundef nonnull align 8 dereferenceable(8) %m_clauses)
  %1 = load ptr, ptr %m_solver, align 8
  %m_inconsistent.i = getelementptr inbounds i8, ptr %1, i64 3336
  %2 = load i8, ptr %m_inconsistent.i, align 8
  %3 = and i8 %2, 1
  %tobool.i.not = icmp eq i8 %3, 0
  br i1 %tobool.i.not, label %if.end, label %return

if.end:                                           ; preds = %entry
  %m_learned = getelementptr inbounds i8, ptr %1, i64 3384
  tail call void @_ZN3sat8elim_eqs15cleanup_clausesERK7svectorINS_7literalEjER10ptr_vectorINS_6clauseEE(ptr noundef nonnull align 8 dereferenceable(24) %this, ptr noundef nonnull align 8 dereferenceable(8) %roots, ptr noundef nonnull align 8 dereferenceable(8) %m_learned)
  %4 = load ptr, ptr %m_solver, align 8
  %m_inconsistent.i4 = getelementptr inbounds i8, ptr %4, i64 3336
  %5 = load i8, ptr %m_inconsistent.i4, align 8
  %6 = and i8 %5, 1
  %tobool.i5.not = icmp eq i8 %6, 0
  br i1 %tobool.i5.not, label %if.end7, label %return

if.end7:                                          ; preds = %if.end
  tail call void @_ZN3sat8elim_eqs9save_elimERK7svectorINS_7literalEjERKS1_IjjE(ptr noundef nonnull align 8 dereferenceable(24) %this, ptr noundef nonnull align 8 dereferenceable(8) %roots, ptr noundef nonnull align 8 dereferenceable(8) %to_elim)
  %7 = load ptr, ptr %m_solver, align 8
  %call9 = tail call noundef zeroext i1 @_ZN3sat6solver9propagateEb(ptr noundef nonnull align 8 dereferenceable(4408) %7, i1 noundef zeroext false)
  br label %return

return:                                           ; preds = %if.end, %entry, %if.end7
  ret void
}